ccopy_reg
_reconstructor
p0
(csklearn.linear_model.logistic
LogisticRegression
p1
c__builtin__
object
p2
Ntp3
Rp4
(dp5
S'C'
p6
F1.0
sS'max_iter'
p7
I100
sS'verbose'
p8
I0
sS'intercept_scaling'
p9
I1
sS'dual'
p10
I00
sS'fit_intercept'
p11
I01
sS'classes_'
p12
cnumpy.core.multiarray
_reconstruct
p13
(cnumpy
ndarray
p14
(I0
tp15
S'b'
p16
tp17
Rp18
(I1
(I2
tp19
cnumpy
dtype
p20
(S'i8'
p21
I0
I1
tp22
Rp23
(I3
S'<'
p24
NNNI-1
I-1
I0
tp25
bI00
S'\x01\x00\x00\x00\x00\x00\x00\x00\x03\x00\x00\x00\x00\x00\x00\x00'
p26
tp27
bsS'solver'
p28
S'liblinear'
p29
sS'n_iter_'
p30
cnumpy.core.multiarray
scalar
p31
(g20
(S'i4'
p32
I0
I1
tp33
Rp34
(I3
S'<'
p35
NNNI-1
I-1
I0
tp36
bS'\x08\x00\x00\x00'
p37
tp38
Rp39
sS'penalty'
p40
S'l2'
p41
sS'multi_class'
p42
S'ovr'
p43
sS'random_state'
p44
NsS'tol'
p45
F0.0001
sS'coef_'
p46
g13
(g14
(I0
tp47
g16
tp48
Rp49
(I1
(I1
I1
tp50
g20
(S'f8'
p51
I0
I1
tp52
Rp53
(I3
S'<'
p54
NNNI-1
I-1
I0
tp55
bI00
S'IUa\xb7\x9dS\x80\xbf'
p56
tp57
bsS'intercept_'
p58
g13
(g14
(I0
tp59
g16
tp60
Rp61
(I1
(I1
tp62
g53
I00
S'\x80\x9e\x01\x18\x8b\\\xd5\xbf'
p63
tp64
bsS'class_weight'
p65
Nsb.